target datalayout = "e-m:e-p270:32:32-p271:32:32-p272:64:64-i64:64-i128:128-f80:128-n8:16:32:64-S128"
target triple = "x86_64-pc-linux-gnu"

%struct.H5CX_node_t = type { %struct.H5CX_t, ptr }
%struct.H5CX_t = type { i64, ptr, i64, ptr, i64, ptr, i64, ptr, i64, ptr, i64, ptr, i64, i32, i64, i8, ptr, i8, ptr, i8, i32, i8, [3 x double], i8, i64, i8, i32, i8, %struct.H5Z_cb_t, i8, ptr, i8, %struct.H5T_vlen_alloc_info_t, i8, %struct.H5T_conv_cb_t, i8, i32, i8, i8, i8, i32, i8, i8, i32, i8, i8, i32, i8, i32, i8, i64, i8, i8, i8, i8, i8, ptr, i8, ptr, i8, i32, i8, i32, i8, %struct.H5VL_connector_prop_t, i8, ptr, i8 }
%struct.H5Z_cb_t = type { ptr, ptr }
%struct.H5T_vlen_alloc_info_t = type { ptr, ptr, ptr, ptr }
%struct.H5T_conv_cb_t = type { ptr, ptr }
%struct.H5VL_connector_prop_t = type { ptr, ptr }

@H5P_CLS_DATASET_CREATE_ID_g = external global i64, align 8
@H5P_init_g = external global i8, align 1
@H5_libterm_g = external global i8, align 1
@H5_libinit_g = external global i8, align 1
@.str.1 = private unnamed_addr constant [101 x i8] c"generated/home/dtcxzyw/WorkSpace/Projects/compilers/llvm-opt-benchmark/bench/hdf5/hdf5/src/H5Pdcpl.c\00", align 1
@__func__.H5Pset_layout = private unnamed_addr constant [14 x i8] c"H5Pset_layout\00", align 1
@H5E_FUNC_g = external global i64, align 8
@H5E_CANTINIT_g = external global i64, align 8
@.str.2 = private unnamed_addr constant [30 x i8] c"library initialization failed\00", align 1
@.str.3 = private unnamed_addr constant [32 x i8] c"interface initialization failed\00", align 1
@H5E_CANTSET_g = external global i64, align 8
@.str.4 = private unnamed_addr constant [22 x i8] c"can't set API context\00", align 1
@H5E_ARGS_g = external global i64, align 8
@H5E_BADRANGE_g = external global i64, align 8
@.str.5 = private unnamed_addr constant [36 x i8] c"raw data layout method is not valid\00", align 1
@H5E_ID_g = external global i64, align 8
@H5E_BADID_g = external global i64, align 8
@.str.6 = private unnamed_addr constant [25 x i8] c"can't find object for ID\00", align 1
@H5E_DATASET_g = external global i64, align 8
@H5E_UNSUPPORTED_g = external global i64, align 8
@.str.7 = private unnamed_addr constant [20 x i8] c"unknown layout type\00", align 1
@H5E_PLIST_g = external global i64, align 8
@.str.8 = private unnamed_addr constant [17 x i8] c"can't set layout\00", align 1

; Function Attrs: nounwind uwtable
define i32 @H5Pset_layout(i64 noundef %0, i32 noundef %1) #0 {
  %3 = alloca i64, align 8
  %4 = alloca i32, align 4
  %5 = alloca ptr, align 8
  %6 = alloca ptr, align 8
  %7 = alloca i32, align 4
  %8 = alloca %struct.H5CX_node_t, align 8
  %9 = alloca i8, align 1
  %10 = alloca i8, align 1
  store i64 %0, ptr %3, align 8, !tbaa !14
  store i32 %1, ptr %4, align 4, !tbaa !8
  call void @llvm.lifetime.start.p0(i64 8, ptr %5) #11
  call void @llvm.lifetime.start.p0(i64 8, ptr %6) #11
  call void @llvm.lifetime.start.p0(i64 4, ptr %7) #11
  store i32 0, ptr %7, align 4, !tbaa !8
  call void @llvm.lifetime.start.p0(i64 480, ptr %8) #11
  call void @llvm.memset.p0.i64(ptr align 8 %8, i8 0, i64 480, i1 false)
  call void @llvm.lifetime.start.p0(i64 1, ptr %9) #11
  store i8 0, ptr %9, align 1, !tbaa !10
  call void @llvm.lifetime.start.p0(i64 1, ptr %10) #11
  store i8 0, ptr %10, align 1, !tbaa !10
  br label %11

11:                                               ; preds = %2
  %12 = load i8, ptr @H5_libinit_g, align 1, !tbaa !10, !range !12, !noundef !13
  %13 = trunc i8 %12 to i1
  br i1 %13, label %18, label %14

14:                                               ; preds = %11
  %15 = load i8, ptr @H5_libterm_g, align 1, !tbaa !10, !range !12, !noundef !13
  %16 = trunc i8 %15 to i1
  %17 = xor i1 %16, true
  br label %18

18:                                               ; preds = %14, %11
  %19 = phi i1 [ false, %11 ], [ %17, %14 ]
  %20 = xor i1 %19, true
  %21 = xor i1 %20, true
  %22 = zext i1 %21 to i32
  %23 = sext i32 %22 to i64
  %24 = call i64 @llvm.expect.i64(i64 %23, i64 0)
  %25 = icmp ne i64 %24, 0
  br i1 %25, label %26, label %55

26:                                               ; preds = %18
  %27 = call i32 @H5_init_library()
  %28 = icmp slt i32 %27, 0
  %29 = xor i1 %28, true
  %30 = xor i1 %29, true
  %31 = zext i1 %30 to i32
  %32 = sext i32 %31 to i64
  %33 = call i64 @llvm.expect.i64(i64 %32, i64 0)
  %34 = icmp ne i64 %33, 0
  br i1 %34, label %35, label %54

35:                                               ; preds = %26
  br label %36

36:                                               ; preds = %35
  br label %37

37:                                               ; preds = %36
  br label %38

38:                                               ; preds = %37
  %39 = load i64, ptr @H5E_FUNC_g, align 8, !tbaa !14
  %40 = load i64, ptr @H5E_CANTINIT_g, align 8, !tbaa !14
  %41 = call i32 (ptr, ptr, i32, i64, i64, ptr, ...) @H5E_printf_stack(ptr noundef @.str.1, ptr noundef @__func__.H5Pset_layout, i32 noundef 1819, i64 noundef %39, i64 noundef %40, ptr noundef @.str.2)
  br label %42

42:                                               ; preds = %38
  br label %43

43:                                               ; preds = %42
  store i8 1, ptr %10, align 1, !tbaa !10
  %44 = load i8, ptr %10, align 1, !tbaa !10, !range !12, !noundef !13
  %45 = trunc i8 %44 to i1
  %46 = zext i1 %45 to i8
  store i8 %46, ptr %10, align 1, !tbaa !10
  br label %47

47:                                               ; preds = %43
  br label %48

48:                                               ; preds = %47
  br label %49

49:                                               ; preds = %48
  store i32 -1, ptr %7, align 4, !tbaa !8
  br label %228

50:                                               ; No predecessors!
  br label %51

51:                                               ; preds = %50
  br label %52

52:                                               ; preds = %51
  br label %53

53:                                               ; preds = %52
  br label %54

54:                                               ; preds = %53, %26
  br label %55

55:                                               ; preds = %54, %18
  %56 = load i8, ptr @H5P_init_g, align 1, !tbaa !10, !range !12, !noundef !13
  %57 = trunc i8 %56 to i1
  br i1 %57, label %62, label %58

58:                                               ; preds = %55
  %59 = load i8, ptr @H5_libterm_g, align 1, !tbaa !10, !range !12, !noundef !13
  %60 = trunc i8 %59 to i1
  %61 = xor i1 %60, true
  br label %62

62:                                               ; preds = %58, %55
  %63 = phi i1 [ false, %55 ], [ %61, %58 ]
  %64 = xor i1 %63, true
  %65 = xor i1 %64, true
  %66 = zext i1 %65 to i32
  %67 = sext i32 %66 to i64
  %68 = call i64 @llvm.expect.i64(i64 %67, i64 0)
  %69 = icmp ne i64 %68, 0
  br i1 %69, label %70, label %93

70:                                               ; preds = %62
  store i8 1, ptr @H5P_init_g, align 1, !tbaa !10
  %71 = call i32 @H5P__init_package()
  %72 = icmp slt i32 %71, 0
  br i1 %72, label %73, label %92

73:                                               ; preds = %70
  store i8 0, ptr @H5P_init_g, align 1, !tbaa !10
  br label %74

74:                                               ; preds = %73
  br label %75

75:                                               ; preds = %74
  br label %76

76:                                               ; preds = %75
  %77 = load i64, ptr @H5E_FUNC_g, align 8, !tbaa !14
  %78 = load i64, ptr @H5E_CANTINIT_g, align 8, !tbaa !14
  %79 = call i32 (ptr, ptr, i32, i64, i64, ptr, ...) @H5E_printf_stack(ptr noundef @.str.1, ptr noundef @__func__.H5Pset_layout, i32 noundef 1819, i64 noundef %77, i64 noundef %78, ptr noundef @.str.3)
  br label %80

80:                                               ; preds = %76
  br label %81

81:                                               ; preds = %80
  store i8 1, ptr %10, align 1, !tbaa !10
  %82 = load i8, ptr %10, align 1, !tbaa !10, !range !12, !noundef !13
  %83 = trunc i8 %82 to i1
  %84 = zext i1 %83 to i8
  store i8 %84, ptr %10, align 1, !tbaa !10
  br label %85

85:                                               ; preds = %81
  br label %86

86:                                               ; preds = %85
  br label %87

87:                                               ; preds = %86
  store i32 -1, ptr %7, align 4, !tbaa !8
  br label %228

88:                                               ; No predecessors!
  br label %89

89:                                               ; preds = %88
  br label %90

90:                                               ; preds = %89
  br label %91

91:                                               ; preds = %90
  br label %92

92:                                               ; preds = %91, %70
  br label %93

93:                                               ; preds = %92, %62
  br label %94

94:                                               ; preds = %93
  br label %95

95:                                               ; preds = %94
  br label %96

96:                                               ; preds = %95
  %97 = call i32 @H5CX_push(ptr noundef %8)
  %98 = icmp slt i32 %97, 0
  %99 = xor i1 %98, true
  %100 = xor i1 %99, true
  %101 = zext i1 %100 to i32
  %102 = sext i32 %101 to i64
  %103 = call i64 @llvm.expect.i64(i64 %102, i64 0)
  %104 = icmp ne i64 %103, 0
  br i1 %104, label %105, label %124

105:                                              ; preds = %96
  br label %106

106:                                              ; preds = %105
  br label %107

107:                                              ; preds = %106
  br label %108

108:                                              ; preds = %107
  %109 = load i64, ptr @H5E_FUNC_g, align 8, !tbaa !14
  %110 = load i64, ptr @H5E_CANTSET_g, align 8, !tbaa !14
  %111 = call i32 (ptr, ptr, i32, i64, i64, ptr, ...) @H5E_printf_stack(ptr noundef @.str.1, ptr noundef @__func__.H5Pset_layout, i32 noundef 1819, i64 noundef %109, i64 noundef %110, ptr noundef @.str.4)
  br label %112

112:                                              ; preds = %108
  br label %113

113:                                              ; preds = %112
  store i8 1, ptr %10, align 1, !tbaa !10
  %114 = load i8, ptr %10, align 1, !tbaa !10, !range !12, !noundef !13
  %115 = trunc i8 %114 to i1
  %116 = zext i1 %115 to i8
  store i8 %116, ptr %10, align 1, !tbaa !10
  br label %117

117:                                              ; preds = %113
  br label %118

118:                                              ; preds = %117
  br label %119

119:                                              ; preds = %118
  store i32 -1, ptr %7, align 4, !tbaa !8
  br label %228

120:                                              ; No predecessors!
  br label %121

121:                                              ; preds = %120
  br label %122

122:                                              ; preds = %121
  br label %123

123:                                              ; preds = %122
  br label %125

124:                                              ; preds = %96
  store i8 1, ptr %9, align 1, !tbaa !10
  br label %125

125:                                              ; preds = %124, %123
  br label %126

126:                                              ; preds = %125
  br label %127

127:                                              ; preds = %126
  %128 = call i32 @H5E_clear_stack()
  %129 = load i32, ptr %4, align 4, !tbaa !8
  %130 = icmp slt i32 %129, 0
  br i1 %130, label %134, label %131

131:                                              ; preds = %127
  %132 = load i32, ptr %4, align 4, !tbaa !8
  %133 = icmp sge i32 %132, 4
  br i1 %133, label %134, label %153

134:                                              ; preds = %131, %127
  br label %135

135:                                              ; preds = %134
  br label %136

136:                                              ; preds = %135
  br label %137

137:                                              ; preds = %136
  %138 = load i64, ptr @H5E_ARGS_g, align 8, !tbaa !14
  %139 = load i64, ptr @H5E_BADRANGE_g, align 8, !tbaa !14
  %140 = call i32 (ptr, ptr, i32, i64, i64, ptr, ...) @H5E_printf_stack(ptr noundef @.str.1, ptr noundef @__func__.H5Pset_layout, i32 noundef 1823, i64 noundef %138, i64 noundef %139, ptr noundef @.str.5)
  br label %141

141:                                              ; preds = %137
  br label %142

142:                                              ; preds = %141
  store i8 1, ptr %10, align 1, !tbaa !10
  %143 = load i8, ptr %10, align 1, !tbaa !10, !range !12, !noundef !13
  %144 = trunc i8 %143 to i1
  %145 = zext i1 %144 to i8
  store i8 %145, ptr %10, align 1, !tbaa !10
  br label %146

146:                                              ; preds = %142
  br label %147

147:                                              ; preds = %146
  br label %148

148:                                              ; preds = %147
  store i32 -1, ptr %7, align 4, !tbaa !8
  br label %228

149:                                              ; No predecessors!
  br label %150

150:                                              ; preds = %149
  br label %151

151:                                              ; preds = %150
  br label %152

152:                                              ; preds = %151
  br label %153

153:                                              ; preds = %152, %131
  %154 = load i64, ptr %3, align 8, !tbaa !14
  %155 = load i64, ptr @H5P_CLS_DATASET_CREATE_ID_g, align 8, !tbaa !14
  %156 = call ptr @H5P_object_verify(i64 noundef %154, i64 noundef %155, i1 noundef zeroext false)
  store ptr %156, ptr %5, align 8, !tbaa !28
  %157 = icmp eq ptr null, %156
  br i1 %157, label %158, label %177

158:                                              ; preds = %153
  br label %159

159:                                              ; preds = %158
  br label %160

160:                                              ; preds = %159
  br label %161

161:                                              ; preds = %160
  %162 = load i64, ptr @H5E_ID_g, align 8, !tbaa !14
  %163 = load i64, ptr @H5E_BADID_g, align 8, !tbaa !14
  %164 = call i32 (ptr, ptr, i32, i64, i64, ptr, ...) @H5E_printf_stack(ptr noundef @.str.1, ptr noundef @__func__.H5Pset_layout, i32 noundef 1827, i64 noundef %162, i64 noundef %163, ptr noundef @.str.6)
  br label %165

165:                                              ; preds = %161
  br label %166

166:                                              ; preds = %165
  store i8 1, ptr %10, align 1, !tbaa !10
  %167 = load i8, ptr %10, align 1, !tbaa !10, !range !12, !noundef !13
  %168 = trunc i8 %167 to i1
  %169 = zext i1 %168 to i8
  store i8 %169, ptr %10, align 1, !tbaa !10
  br label %170

170:                                              ; preds = %166
  br label %171

171:                                              ; preds = %170
  br label %172

172:                                              ; preds = %171
  store i32 -1, ptr %7, align 4, !tbaa !8
  br label %228

173:                                              ; No predecessors!
  br label %174

174:                                              ; preds = %173
  br label %175

175:                                              ; preds = %174
  br label %176

176:                                              ; preds = %175
  br label %177

177:                                              ; preds = %176, %153
  %178 = load i32, ptr %4, align 4, !tbaa !8
  switch i32 %178, label %184 [
    i32 0, label %179
    i32 1, label %180
    i32 2, label %181
    i32 3, label %182
    i32 -1, label %183
    i32 4, label %183
  ]

179:                                              ; preds = %177
  store ptr @H5D_def_layout_compact_g, ptr %6, align 8, !tbaa !30
  br label %203

180:                                              ; preds = %177
  store ptr @H5D_def_layout_contig_g, ptr %6, align 8, !tbaa !30
  br label %203

181:                                              ; preds = %177
  store ptr @H5D_def_layout_chunk_g, ptr %6, align 8, !tbaa !30
  br label %203

182:                                              ; preds = %177
  store ptr @H5D_def_layout_virtual_g, ptr %6, align 8, !tbaa !30
  br label %203

183:                                              ; preds = %177, %177
  br label %184

184:                                              ; preds = %177, %183
  br label %185

185:                                              ; preds = %184
  br label %186

186:                                              ; preds = %185
  br label %187

187:                                              ; preds = %186
  %188 = load i64, ptr @H5E_DATASET_g, align 8, !tbaa !14
  %189 = load i64, ptr @H5E_UNSUPPORTED_g, align 8, !tbaa !14
  %190 = call i32 (ptr, ptr, i32, i64, i64, ptr, ...) @H5E_printf_stack(ptr noundef @.str.1, ptr noundef @__func__.H5Pset_layout, i32 noundef 1850, i64 noundef %188, i64 noundef %189, ptr noundef @.str.7)
  br label %191

191:                                              ; preds = %187
  br label %192

192:                                              ; preds = %191
  store i8 1, ptr %10, align 1, !tbaa !10
  %193 = load i8, ptr %10, align 1, !tbaa !10, !range !12, !noundef !13
  %194 = trunc i8 %193 to i1
  %195 = zext i1 %194 to i8
  store i8 %195, ptr %10, align 1, !tbaa !10
  br label %196

196:                                              ; preds = %192
  br label %197

197:                                              ; preds = %196
  br label %198

198:                                              ; preds = %197
  store i32 -1, ptr %7, align 4, !tbaa !8
  br label %228

199:                                              ; No predecessors!
  br label %200

200:                                              ; preds = %199
  br label %201

201:                                              ; preds = %200
  br label %202

202:                                              ; preds = %201
  br label %203

203:                                              ; preds = %202, %182, %181, %180, %179
  %204 = load ptr, ptr %5, align 8, !tbaa !28
  %205 = load ptr, ptr %6, align 8, !tbaa !30
  %206 = call i32 @H5P__set_layout(ptr noundef %204, ptr noundef %205)
  %207 = icmp slt i32 %206, 0
  br i1 %207, label %208, label %227

208:                                              ; preds = %203
  br label %209

209:                                              ; preds = %208
  br label %210

210:                                              ; preds = %209
  br label %211

211:                                              ; preds = %210
  %212 = load i64, ptr @H5E_PLIST_g, align 8, !tbaa !14
  %213 = load i64, ptr @H5E_CANTINIT_g, align 8, !tbaa !14
  %214 = call i32 (ptr, ptr, i32, i64, i64, ptr, ...) @H5E_printf_stack(ptr noundef @.str.1, ptr noundef @__func__.H5Pset_layout, i32 noundef 1855, i64 noundef %212, i64 noundef %213, ptr noundef @.str.8)
  br label %215

215:                                              ; preds = %211
  br label %216

216:                                              ; preds = %215
  store i8 1, ptr %10, align 1, !tbaa !10
  %217 = load i8, ptr %10, align 1, !tbaa !10, !range !12, !noundef !13
  %218 = trunc i8 %217 to i1
  %219 = zext i1 %218 to i8
  store i8 %219, ptr %10, align 1, !tbaa !10
  br label %220

220:                                              ; preds = %216
  br label %221

221:                                              ; preds = %220
  br label %222

222:                                              ; preds = %221
  store i32 -1, ptr %7, align 4, !tbaa !8
  br label %228

223:                                              ; No predecessors!
  br label %224

224:                                              ; preds = %223
  br label %225

225:                                              ; preds = %224
  br label %226

226:                                              ; preds = %225
  br label %227

227:                                              ; preds = %226, %203
  br label %228

228:                                              ; preds = %227, %222, %198, %172, %148, %119, %87, %49
  %229 = load i8, ptr %9, align 1, !tbaa !10, !range !12, !noundef !13
  %230 = trunc i8 %229 to i1
  %231 = xor i1 %230, true
  %232 = xor i1 %231, true
  %233 = zext i1 %232 to i32
  %234 = sext i32 %233 to i64
  %235 = call i64 @llvm.expect.i64(i64 %234, i64 1)
  %236 = icmp ne i64 %235, 0
  br i1 %236, label %237, label %239

237:                                              ; preds = %228
  %238 = call i32 @H5CX_pop(i1 noundef zeroext true)
  store i8 0, ptr %9, align 1, !tbaa !10
  br label %239

239:                                              ; preds = %237, %228
  %240 = load i8, ptr %10, align 1, !tbaa !10, !range !12, !noundef !13
  %241 = trunc i8 %240 to i1
  %242 = xor i1 %241, true
  %243 = xor i1 %242, true
  %244 = zext i1 %243 to i32
  %245 = sext i32 %244 to i64
  %246 = call i64 @llvm.expect.i64(i64 %245, i64 0)
  %247 = icmp ne i64 %246, 0
  br i1 %247, label %248, label %250

248:                                              ; preds = %239
  %249 = call i32 @H5E_dump_api_stack()
  br label %250

250:                                              ; preds = %248, %239
  %251 = load i32, ptr %7, align 4, !tbaa !8
  call void @llvm.lifetime.end.p0(i64 1, ptr %10) #11
  call void @llvm.lifetime.end.p0(i64 1, ptr %9) #11
  call void @llvm.lifetime.end.p0(i64 480, ptr %8) #11
  call void @llvm.lifetime.end.p0(i64 4, ptr %7) #11
  call void @llvm.lifetime.end.p0(i64 8, ptr %6) #11
  call void @llvm.lifetime.end.p0(i64 8, ptr %5) #11
  ret i32 %251
}