; Function Attrs: nounwind uwtable
define range(i32 -1, 1) i32 @H5Pset_layout(i64 noundef %0, i32 noundef %1) local_unnamed_addr #0 {
  %3 = alloca %struct.H5CX_node_t, align 8
  call void @llvm.lifetime.start.p0(i64 480, ptr nonnull %3) #12
  call void @llvm.memset.p0.i64(ptr noundef nonnull align 8 dereferenceable(480) %3, i8 0, i64 480, i1 false)
  %4 = load i8, ptr @H5_libinit_g, align 1, !tbaa !3, !range !7, !noundef !8
  %5 = trunc nuw i8 %4 to i1
  %6 = load i8, ptr @H5_libterm_g, align 1, !range !7
  %7 = trunc nuw i8 %6 to i1
  %8 = select i1 %5, i1 true, i1 %7
  br i1 %8, label %16, label %9, !prof !9

9:                                                ; preds = %2
  %10 = tail call i32 @H5_init_library() #12
  %11 = icmp slt i32 %10, 0
  br i1 %11, label %12, label %._crit_edge, !prof !23

._crit_edge:                                      ; preds = %9
  %.pre = load i8, ptr @H5_libterm_g, align 1, !range !7
  br label %16

12:                                               ; preds = %9
  %13 = load i64, ptr @H5E_FUNC_g, align 8, !tbaa !10
  %14 = load i64, ptr @H5E_CANTINIT_g, align 8, !tbaa !10
  %15 = tail call i32 (ptr, ptr, i32, i64, i64, ptr, ...) @H5E_printf_stack(ptr noundef nonnull @.str.1, ptr noundef nonnull @__func__.H5Pset_layout, i32 noundef 1819, i64 noundef %13, i64 noundef %14, ptr noundef nonnull @.str.2) #12
  br label %.thread29

16:                                               ; preds = %._crit_edge, %2
  %17 = phi i8 [ %.pre, %._crit_edge ], [ %6, %2 ]
  %18 = load i8, ptr @H5P_init_g, align 1, !tbaa !3, !range !7, !noundef !8
  %19 = trunc nuw i8 %18 to i1
  %20 = trunc nuw i8 %17 to i1
  %21 = select i1 %19, i1 true, i1 %20
  br i1 %21, label %29, label %22, !prof !9

22:                                               ; preds = %16
  store i8 1, ptr @H5P_init_g, align 1, !tbaa !3
  %23 = tail call i32 @H5P__init_package() #12
  %24 = icmp slt i32 %23, 0
  br i1 %24, label %25, label %29, !prof !24

25:                                               ; preds = %22
  store i8 0, ptr @H5P_init_g, align 1, !tbaa !3
  %26 = load i64, ptr @H5E_FUNC_g, align 8, !tbaa !10
  %27 = load i64, ptr @H5E_CANTINIT_g, align 8, !tbaa !10
  %28 = tail call i32 (ptr, ptr, i32, i64, i64, ptr, ...) @H5E_printf_stack(ptr noundef nonnull @.str.1, ptr noundef nonnull @__func__.H5Pset_layout, i32 noundef 1819, i64 noundef %26, i64 noundef %27, ptr noundef nonnull @.str.3) #12
  br label %.thread29

29:                                               ; preds = %16, %22
  %30 = call i32 @H5CX_push(ptr noundef nonnull %3) #12
  %31 = icmp slt i32 %30, 0
  br i1 %31, label %32, label %36, !prof !23

32:                                               ; preds = %29
  %33 = load i64, ptr @H5E_FUNC_g, align 8, !tbaa !10
  %34 = load i64, ptr @H5E_CANTSET_g, align 8, !tbaa !10
  %35 = call i32 (ptr, ptr, i32, i64, i64, ptr, ...) @H5E_printf_stack(ptr noundef nonnull @.str.1, ptr noundef nonnull @__func__.H5Pset_layout, i32 noundef 1819, i64 noundef %33, i64 noundef %34, ptr noundef nonnull @.str.4) #12
  br label %.thread29

36:                                               ; preds = %29
  %37 = call i32 @H5E_clear_stack() #12
  %or.cond = icmp ugt i32 %1, 3
  br i1 %or.cond, label %38, label %42, !prof !25

38:                                               ; preds = %36
  %39 = load i64, ptr @H5E_ARGS_g, align 8, !tbaa !10
  %40 = load i64, ptr @H5E_BADRANGE_g, align 8, !tbaa !10
  %41 = call i32 (ptr, ptr, i32, i64, i64, ptr, ...) @H5E_printf_stack(ptr noundef nonnull @.str.1, ptr noundef nonnull @__func__.H5Pset_layout, i32 noundef 1823, i64 noundef %39, i64 noundef %40, ptr noundef nonnull @.str.5) #12
  br label %.thread35

42:                                               ; preds = %36
  %43 = load i64, ptr @H5P_CLS_DATASET_CREATE_ID_g, align 8, !tbaa !10
  %44 = call ptr @H5P_object_verify(i64 noundef %0, i64 noundef %43, i1 noundef zeroext false) #12
  %45 = icmp eq ptr %44, null
  br i1 %45, label %46, label %switch.lookup, !prof !25

46:                                               ; preds = %42
  %47 = load i64, ptr @H5E_ID_g, align 8, !tbaa !10
  %48 = load i64, ptr @H5E_BADID_g, align 8, !tbaa !10
  %49 = call i32 (ptr, ptr, i32, i64, i64, ptr, ...) @H5E_printf_stack(ptr noundef nonnull @.str.1, ptr noundef nonnull @__func__.H5Pset_layout, i32 noundef 1827, i64 noundef %47, i64 noundef %48, ptr noundef nonnull @.str.6) #12
  br label %.thread35

switch.lookup:                                    ; preds = %42
  %50 = zext nneg i32 %1 to i64
  %switch.gep = getelementptr inbounds nuw [4 x ptr], ptr @switch.table.H5Pset_layout, i64 0, i64 %50
  %switch.load = load ptr, ptr %switch.gep, align 8
  %51 = call fastcc i32 @H5P__set_layout(ptr noundef %44, ptr noundef nonnull %switch.load)
  %52 = icmp slt i32 %51, 0
  br i1 %52, label %53, label %58, !prof !25

53:                                               ; preds = %switch.lookup
  %54 = load i64, ptr @H5E_PLIST_g, align 8, !tbaa !10
  %55 = load i64, ptr @H5E_CANTINIT_g, align 8, !tbaa !10
  %56 = call i32 (ptr, ptr, i32, i64, i64, ptr, ...) @H5E_printf_stack(ptr noundef nonnull @.str.1, ptr noundef nonnull @__func__.H5Pset_layout, i32 noundef 1855, i64 noundef %54, i64 noundef %55, ptr noundef nonnull @.str.8) #12
  br label %.thread35

.thread35:                                        ; preds = %53, %46, %38
  %57 = call i32 @H5CX_pop(i1 noundef zeroext true) #12
  br label %.thread29

58:                                               ; preds = %switch.lookup
  %59 = call i32 @H5CX_pop(i1 noundef zeroext true) #12
  br label %61

.thread29:                                        ; preds = %32, %25, %12, %.thread35
  %60 = call i32 @H5E_dump_api_stack() #12
  br label %61

61:                                               ; preds = %58, %.thread29
  %.0172432 = phi i32 [ -1, %.thread29 ], [ 0, %58 ]
  call void @llvm.lifetime.end.p0(i64 480, ptr nonnull %3) #12
  ret i32 %.0172432
}